
./build/exec.out:     file format elf32-littleriscv


Disassembly of section .text:

00000000 <main>:
   0:	fe010113          	addi	sp,sp,-32
   4:	00112e23          	sw	ra,28(sp)
   8:	40c000ef          	jal	414 <optimize>
   c:	00c10513          	addi	a0,sp,12
  10:	00000593          	li	a1,0
  14:	00a12627          	fsw	fa0,12(sp)
  18:	04c000ef          	jal	64 <store_in_fpos>
  1c:	028000ef          	jal	44 <EXIT>
  20:	01c12083          	lw	ra,28(sp)
  24:	00000513          	li	a0,0
  28:	02010113          	addi	sp,sp,32
  2c:	00008067          	ret

00000030 <isnanf>:
  30:	e0051553          	fclass.s	a0,fa0
  34:	30057513          	andi	a0,a0,768
  38:	00008067          	ret

0000003c <fabsf>:
  3c:	20a52553          	fabs.s	fa0,fa0
  40:	00008067          	ret

00000044 <EXIT>:
  44:	0000002b          	.word	0x0000002b
  48:	0000002b          	.word	0x0000002b
  4c:	0000002b          	.word	0x0000002b
  50:	00008067          	ret

00000054 <store_in_pos>:
  54:	00052783          	lw	a5,0(a0)
  58:	00259593          	slli	a1,a1,0x2
  5c:	00f5a023          	sw	a5,0(a1)
  60:	00008067          	ret

00000064 <store_in_fpos>:
  64:	00259593          	slli	a1,a1,0x2
  68:	00052787          	flw	fa5,0(a0)
  6c:	00f5a027          	fsw	fa5,0(a1)
  70:	00008067          	ret

00000074 <rosenbrock>:
  74:	00001797          	auipc	a5,0x1
  78:	aac7a787          	flw	fa5,-1364(a5) # b20 <__rodata_start>
  7c:	00052687          	flw	fa3,0(a0)
  80:	00452587          	flw	fa1,4(a0)
  84:	08d7f653          	fsub.s	fa2,fa5,fa3
  88:	00001797          	auipc	a5,0x1
  8c:	a9c7a707          	flw	fa4,-1380(a5) # b24 <__rodata_start+0x4>
  90:	58d6f6cb          	fnmsub.s	fa3,fa3,fa3,fa1
  94:	0005a507          	flw	fa0,0(a1)
  98:	10c67653          	fmul.s	fa2,fa2,fa2
  9c:	10d6f6d3          	fmul.s	fa3,fa3,fa3
  a0:	60e6f5c3          	fmadd.s	fa1,fa3,fa4,fa2
  a4:	00a5f5d3          	fadd.s	fa1,fa1,fa0
  a8:	00b5a027          	fsw	fa1,0(a1)
  ac:	00452687          	flw	fa3,4(a0)
  b0:	00852507          	flw	fa0,8(a0)
  b4:	08d7f653          	fsub.s	fa2,fa5,fa3
  b8:	50d6f6cb          	fnmsub.s	fa3,fa3,fa3,fa0
  bc:	10c67653          	fmul.s	fa2,fa2,fa2
  c0:	10d6f6d3          	fmul.s	fa3,fa3,fa3
  c4:	60e6f643          	fmadd.s	fa2,fa3,fa4,fa2
  c8:	00b67653          	fadd.s	fa2,fa2,fa1
  cc:	00c5a027          	fsw	fa2,0(a1)
  d0:	00852687          	flw	fa3,8(a0)
  d4:	00c52507          	flw	fa0,12(a0)
  d8:	08d7f5d3          	fsub.s	fa1,fa5,fa3
  dc:	50d6f6cb          	fnmsub.s	fa3,fa3,fa3,fa0
  e0:	10b5f5d3          	fmul.s	fa1,fa1,fa1
  e4:	10d6f6d3          	fmul.s	fa3,fa3,fa3
  e8:	58e6f5c3          	fmadd.s	fa1,fa3,fa4,fa1
  ec:	00c5f5d3          	fadd.s	fa1,fa1,fa2
  f0:	00b5a027          	fsw	fa1,0(a1)
  f4:	00c52687          	flw	fa3,12(a0)
  f8:	01052507          	flw	fa0,16(a0)
  fc:	08d7f653          	fsub.s	fa2,fa5,fa3
 100:	50d6f6cb          	fnmsub.s	fa3,fa3,fa3,fa0
 104:	10c67653          	fmul.s	fa2,fa2,fa2
 108:	10d6f6d3          	fmul.s	fa3,fa3,fa3
 10c:	60e6f643          	fmadd.s	fa2,fa3,fa4,fa2
 110:	00b67653          	fadd.s	fa2,fa2,fa1
 114:	00c5a027          	fsw	fa2,0(a1)
 118:	01052687          	flw	fa3,16(a0)
 11c:	01452507          	flw	fa0,20(a0)
 120:	08d7f5d3          	fsub.s	fa1,fa5,fa3
 124:	50d6f6cb          	fnmsub.s	fa3,fa3,fa3,fa0
 128:	10b5f5d3          	fmul.s	fa1,fa1,fa1
 12c:	10d6f6d3          	fmul.s	fa3,fa3,fa3
 130:	58e6f5c3          	fmadd.s	fa1,fa3,fa4,fa1
 134:	00c5f5d3          	fadd.s	fa1,fa1,fa2
 138:	00b5a027          	fsw	fa1,0(a1)
 13c:	01452687          	flw	fa3,20(a0)
 140:	01852507          	flw	fa0,24(a0)
 144:	08d7f653          	fsub.s	fa2,fa5,fa3
 148:	50d6f6cb          	fnmsub.s	fa3,fa3,fa3,fa0
 14c:	10c67653          	fmul.s	fa2,fa2,fa2
 150:	10d6f6d3          	fmul.s	fa3,fa3,fa3
 154:	60e6f643          	fmadd.s	fa2,fa3,fa4,fa2
 158:	00b67653          	fadd.s	fa2,fa2,fa1
 15c:	00c5a027          	fsw	fa2,0(a1)
 160:	01852687          	flw	fa3,24(a0)
 164:	01c52507          	flw	fa0,28(a0)
 168:	08d7f5d3          	fsub.s	fa1,fa5,fa3
 16c:	50d6f6cb          	fnmsub.s	fa3,fa3,fa3,fa0
 170:	10b5f5d3          	fmul.s	fa1,fa1,fa1
 174:	10d6f6d3          	fmul.s	fa3,fa3,fa3
 178:	58e6f5c3          	fmadd.s	fa1,fa3,fa4,fa1
 17c:	00c5f5d3          	fadd.s	fa1,fa1,fa2
 180:	00b5a027          	fsw	fa1,0(a1)
 184:	01c52687          	flw	fa3,28(a0)
 188:	02052507          	flw	fa0,32(a0)
 18c:	08d7f653          	fsub.s	fa2,fa5,fa3
 190:	50d6f6cb          	fnmsub.s	fa3,fa3,fa3,fa0
 194:	10c67653          	fmul.s	fa2,fa2,fa2
 198:	10d6f6d3          	fmul.s	fa3,fa3,fa3
 19c:	60e6f643          	fmadd.s	fa2,fa3,fa4,fa2
 1a0:	00b67653          	fadd.s	fa2,fa2,fa1
 1a4:	00c5a027          	fsw	fa2,0(a1)
 1a8:	02052687          	flw	fa3,32(a0)
 1ac:	02452507          	flw	fa0,36(a0)
 1b0:	08d7f5d3          	fsub.s	fa1,fa5,fa3
 1b4:	50d6f6cb          	fnmsub.s	fa3,fa3,fa3,fa0
 1b8:	10b5f5d3          	fmul.s	fa1,fa1,fa1
 1bc:	10d6f6d3          	fmul.s	fa3,fa3,fa3
 1c0:	58e6f5c3          	fmadd.s	fa1,fa3,fa4,fa1
 1c4:	00c5f5d3          	fadd.s	fa1,fa1,fa2
 1c8:	00b5a027          	fsw	fa1,0(a1)
 1cc:	02452687          	flw	fa3,36(a0)
 1d0:	02852507          	flw	fa0,40(a0)
 1d4:	08d7f653          	fsub.s	fa2,fa5,fa3
 1d8:	50d6f6cb          	fnmsub.s	fa3,fa3,fa3,fa0
 1dc:	10c67653          	fmul.s	fa2,fa2,fa2
 1e0:	10d6f6d3          	fmul.s	fa3,fa3,fa3
 1e4:	60e6f643          	fmadd.s	fa2,fa3,fa4,fa2
 1e8:	00b67653          	fadd.s	fa2,fa2,fa1
 1ec:	00c5a027          	fsw	fa2,0(a1)
 1f0:	02852687          	flw	fa3,40(a0)
 1f4:	02c52507          	flw	fa0,44(a0)
 1f8:	08d7f5d3          	fsub.s	fa1,fa5,fa3
 1fc:	50d6f6cb          	fnmsub.s	fa3,fa3,fa3,fa0
 200:	10b5f5d3          	fmul.s	fa1,fa1,fa1
 204:	10d6f6d3          	fmul.s	fa3,fa3,fa3
 208:	58e6f5c3          	fmadd.s	fa1,fa3,fa4,fa1
 20c:	00c5f5d3          	fadd.s	fa1,fa1,fa2
 210:	00b5a027          	fsw	fa1,0(a1)
 214:	02c52687          	flw	fa3,44(a0)
 218:	03052507          	flw	fa0,48(a0)
 21c:	08d7f653          	fsub.s	fa2,fa5,fa3
 220:	50d6f6cb          	fnmsub.s	fa3,fa3,fa3,fa0
 224:	10c67653          	fmul.s	fa2,fa2,fa2
 228:	10d6f6d3          	fmul.s	fa3,fa3,fa3
 22c:	60e6f643          	fmadd.s	fa2,fa3,fa4,fa2
 230:	00b67653          	fadd.s	fa2,fa2,fa1
 234:	00c5a027          	fsw	fa2,0(a1)
 238:	03052687          	flw	fa3,48(a0)
 23c:	03452507          	flw	fa0,52(a0)
 240:	08d7f5d3          	fsub.s	fa1,fa5,fa3
 244:	50d6f6cb          	fnmsub.s	fa3,fa3,fa3,fa0
 248:	10b5f5d3          	fmul.s	fa1,fa1,fa1
 24c:	10d6f6d3          	fmul.s	fa3,fa3,fa3
 250:	58e6f6c3          	fmadd.s	fa3,fa3,fa4,fa1
 254:	00c6f6d3          	fadd.s	fa3,fa3,fa2
 258:	00d5a027          	fsw	fa3,0(a1)
 25c:	03452607          	flw	fa2,52(a0)
 260:	03852587          	flw	fa1,56(a0)
 264:	08c7f7d3          	fsub.s	fa5,fa5,fa2
 268:	58c6764b          	fnmsub.s	fa2,fa2,fa2,fa1
 26c:	10f7f7d3          	fmul.s	fa5,fa5,fa5
 270:	10c67653          	fmul.s	fa2,fa2,fa2
 274:	78e67643          	fmadd.s	fa2,fa2,fa4,fa5
 278:	00d67653          	fadd.s	fa2,fa2,fa3
 27c:	00c5a027          	fsw	fa2,0(a1)
 280:	00008067          	ret

00000284 <rosenbrock_dv>:
 284:	03c58313          	addi	t1,a1,60
 288:	03850e13          	addi	t3,a0,56
 28c:	00001797          	auipc	a5,0x1
 290:	8947a007          	flw	ft0,-1900(a5) # b20 <__rodata_start>
 294:	00001797          	auipc	a5,0x1
 298:	8907a107          	flw	ft2,-1904(a5) # b24 <__rodata_start+0x4>
 29c:	00001797          	auipc	a5,0x1
 2a0:	88c7a187          	flw	ft3,-1908(a5) # b28 <__rodata_start+0x8>
 2a4:	0006a023          	sw	zero,0(a3)
 2a8:	0006a223          	sw	zero,4(a3)
 2ac:	0006a423          	sw	zero,8(a3)
 2b0:	0006a623          	sw	zero,12(a3)
 2b4:	0006a823          	sw	zero,16(a3)
 2b8:	0006aa23          	sw	zero,20(a3)
 2bc:	0006ac23          	sw	zero,24(a3)
 2c0:	0006ae23          	sw	zero,28(a3)
 2c4:	0206a023          	sw	zero,32(a3)
 2c8:	0206a223          	sw	zero,36(a3)
 2cc:	0206a423          	sw	zero,40(a3)
 2d0:	0206a623          	sw	zero,44(a3)
 2d4:	0206a823          	sw	zero,48(a3)
 2d8:	0206aa23          	sw	zero,52(a3)
 2dc:	0206ac23          	sw	zero,56(a3)
 2e0:	00052787          	flw	fa5,0(a0)
 2e4:	00452507          	flw	fa0,4(a0)
 2e8:	50f7f54b          	fnmsub.s	fa0,fa5,fa5,fa0
 2ec:	04e05c63          	blez	a4,344 <rosenbrock_dv+0xc0>
 2f0:	103570d3          	fmul.s	ft1,fa0,ft3
 2f4:	00068793          	mv	a5,a3
 2f8:	fc430893          	addi	a7,t1,-60
 2fc:	00030813          	mv	a6,t1
 300:	00000593          	li	a1,0
 304:	00f7f753          	fadd.s	fa4,fa5,fa5
 308:	0008a687          	flw	fa3,0(a7)
 30c:	00082587          	flw	fa1,0(a6)
 310:	08f077d3          	fsub.s	fa5,ft0,fa5
 314:	0007a607          	flw	fa2,0(a5)
 318:	00158593          	addi	a1,a1,1
 31c:	00488893          	addi	a7,a7,4
 320:	00480813          	addi	a6,a6,4
 324:	00478793          	addi	a5,a5,4
 328:	58d7774b          	fnmsub.s	fa4,fa4,fa3,fa1
 32c:	00f7f7d3          	fadd.s	fa5,fa5,fa5
 330:	60e0f743          	fmadd.s	fa4,ft1,fa4,fa2
 334:	70f6f6cb          	fnmsub.s	fa3,fa3,fa5,fa4
 338:	fed7ae27          	fsw	fa3,-4(a5)
 33c:	00052787          	flw	fa5,0(a0)
 340:	fcb712e3          	bne	a4,a1,304 <rosenbrock_dv+0x80>
 344:	10a57553          	fmul.s	fa0,fa0,fa0
 348:	00062707          	flw	fa4,0(a2)
 34c:	08f077d3          	fsub.s	fa5,ft0,fa5
 350:	00450513          	addi	a0,a0,4
 354:	03c30313          	addi	t1,t1,60
 358:	70257543          	fmadd.s	fa0,fa0,ft2,fa4
 35c:	50f7f7c3          	fmadd.s	fa5,fa5,fa5,fa0
 360:	00f62027          	fsw	fa5,0(a2)
 364:	f7c51ee3          	bne	a0,t3,2e0 <rosenbrock_dv+0x5c>
 368:	00008067          	ret

0000036c <check_abort>:
 36c:	fe010113          	addi	sp,sp,-32
 370:	00812c23          	sw	s0,24(sp)
 374:	00050413          	mv	s0,a0
 378:	00912a23          	sw	s1,20(sp)
 37c:	00000493          	li	s1,0
 380:	01212823          	sw	s2,16(sp)
 384:	03c50913          	addi	s2,a0,60
 388:	00912427          	fsw	fs1,8(sp)
 38c:	00000797          	auipc	a5,0x0
 390:	7a07a487          	flw	fs1,1952(a5) # b2c <__rodata_start+0xc>
 394:	00112e23          	sw	ra,28(sp)
 398:	00812627          	fsw	fs0,12(sp)
 39c:	00042407          	flw	fs0,0(s0)
 3a0:	20840553          	fmv.s	fa0,fs0
 3a4:	c99ff0ef          	jal	3c <fabsf>
 3a8:	a09517d3          	flt.s	a5,fa0,fs1
 3ac:	00078463          	beqz	a5,3b4 <check_abort+0x48>
 3b0:	00148493          	addi	s1,s1,1
 3b4:	20840553          	fmv.s	fa0,fs0
 3b8:	00440413          	addi	s0,s0,4
 3bc:	c75ff0ef          	jal	30 <isnanf>
 3c0:	02051863          	bnez	a0,3f0 <check_abort+0x84>
 3c4:	fd241ce3          	bne	s0,s2,39c <check_abort+0x30>
 3c8:	01c12083          	lw	ra,28(sp)
 3cc:	00e4a513          	slti	a0,s1,14
 3d0:	01812403          	lw	s0,24(sp)
 3d4:	00154513          	xori	a0,a0,1
 3d8:	01412483          	lw	s1,20(sp)
 3dc:	01012903          	lw	s2,16(sp)
 3e0:	00c12407          	flw	fs0,12(sp)
 3e4:	00812487          	flw	fs1,8(sp)
 3e8:	02010113          	addi	sp,sp,32
 3ec:	00008067          	ret
 3f0:	01c12083          	lw	ra,28(sp)
 3f4:	00100513          	li	a0,1
 3f8:	01812403          	lw	s0,24(sp)
 3fc:	01412483          	lw	s1,20(sp)
 400:	01012903          	lw	s2,16(sp)
 404:	00c12407          	flw	fs0,12(sp)
 408:	00812487          	flw	fs1,8(sp)
 40c:	02010113          	addi	sp,sp,32
 410:	00008067          	ret

00000414 <optimize>:
 414:	b9010113          	addi	sp,sp,-1136
 418:	f00006d3          	fmv.w.x	fa3,zero
 41c:	46812423          	sw	s0,1128(sp)
 420:	06010413          	addi	s0,sp,96
 424:	46912223          	sw	s1,1124(sp)
 428:	02410493          	addi	s1,sp,36
 42c:	47212023          	sw	s2,1120(sp)
 430:	00018937          	lui	s2,0x18
 434:	44812627          	fsw	fs0,1100(sp)
 438:	20d68453          	fmv.s	fs0,fa3
 43c:	44912427          	fsw	fs1,1096(sp)
 440:	20d684d3          	fmv.s	fs1,fa3
 444:	45212227          	fsw	fs2,1092(sp)
 448:	20d68953          	fmv.s	fs2,fa3
 44c:	45312027          	fsw	fs3,1088(sp)
 450:	20d689d3          	fmv.s	fs3,fa3
 454:	43412e27          	fsw	fs4,1084(sp)
 458:	20d68a53          	fmv.s	fs4,fa3
 45c:	43512c27          	fsw	fs5,1080(sp)
 460:	20d68ad3          	fmv.s	fs5,fa3
 464:	43612a27          	fsw	fs6,1076(sp)
 468:	20d68b53          	fmv.s	fs6,fa3
 46c:	43712827          	fsw	fs7,1072(sp)
 470:	20d68bd3          	fmv.s	fs7,fa3
 474:	43812627          	fsw	fs8,1068(sp)
 478:	20d68c53          	fmv.s	fs8,fa3
 47c:	43912427          	fsw	fs9,1064(sp)
 480:	20d68cd3          	fmv.s	fs9,fa3
 484:	43a12227          	fsw	fs10,1060(sp)
 488:	20d68d53          	fmv.s	fs10,fa3
 48c:	43b12027          	fsw	fs11,1056(sp)
 490:	20d68dd3          	fmv.s	fs11,fa3
 494:	46112623          	sw	ra,1132(sp)
 498:	6a090913          	addi	s2,s2,1696 # 186a0 <__global_pointer$+0x16ea0>
 49c:	45512a23          	sw	s5,1108(sp)
 4a0:	45612823          	sw	s6,1104(sp)
 4a4:	00012e23          	sw	zero,28(sp)
 4a8:	02012223          	sw	zero,36(sp)
 4ac:	06012023          	sw	zero,96(sp)
 4b0:	0a012023          	sw	zero,160(sp)
 4b4:	0a012223          	sw	zero,164(sp)
 4b8:	0a012423          	sw	zero,168(sp)
 4bc:	0a012623          	sw	zero,172(sp)
 4c0:	0a012823          	sw	zero,176(sp)
 4c4:	0a012a23          	sw	zero,180(sp)
 4c8:	0a012c23          	sw	zero,184(sp)
 4cc:	0a012e23          	sw	zero,188(sp)
 4d0:	0c012023          	sw	zero,192(sp)
 4d4:	0c012223          	sw	zero,196(sp)
 4d8:	0c012423          	sw	zero,200(sp)
 4dc:	0c012623          	sw	zero,204(sp)
 4e0:	0c012823          	sw	zero,208(sp)
 4e4:	0c012a23          	sw	zero,212(sp)
 4e8:	02012423          	sw	zero,40(sp)
 4ec:	06012223          	sw	zero,100(sp)
 4f0:	0c012c23          	sw	zero,216(sp)
 4f4:	0e012023          	sw	zero,224(sp)
 4f8:	0e012223          	sw	zero,228(sp)
 4fc:	0e012423          	sw	zero,232(sp)
 500:	0e012623          	sw	zero,236(sp)
 504:	0e012823          	sw	zero,240(sp)
 508:	0e012a23          	sw	zero,244(sp)
 50c:	0e012c23          	sw	zero,248(sp)
 510:	0e012e23          	sw	zero,252(sp)
 514:	10012023          	sw	zero,256(sp)
 518:	10012223          	sw	zero,260(sp)
 51c:	10012423          	sw	zero,264(sp)
 520:	10012623          	sw	zero,268(sp)
 524:	10012823          	sw	zero,272(sp)
 528:	02012623          	sw	zero,44(sp)
 52c:	06012423          	sw	zero,104(sp)
 530:	10012a23          	sw	zero,276(sp)
 534:	10012c23          	sw	zero,280(sp)
 538:	12012023          	sw	zero,288(sp)
 53c:	12012223          	sw	zero,292(sp)
 540:	12012423          	sw	zero,296(sp)
 544:	12012623          	sw	zero,300(sp)
 548:	12012823          	sw	zero,304(sp)
 54c:	12012a23          	sw	zero,308(sp)
 550:	12012c23          	sw	zero,312(sp)
 554:	12012e23          	sw	zero,316(sp)
 558:	14012023          	sw	zero,320(sp)
 55c:	14012223          	sw	zero,324(sp)
 560:	14012423          	sw	zero,328(sp)
 564:	14012623          	sw	zero,332(sp)
 568:	02012823          	sw	zero,48(sp)
 56c:	06012623          	sw	zero,108(sp)
 570:	14012823          	sw	zero,336(sp)
 574:	14012a23          	sw	zero,340(sp)
 578:	14012c23          	sw	zero,344(sp)
 57c:	16012023          	sw	zero,352(sp)
 580:	16012223          	sw	zero,356(sp)
 584:	16012423          	sw	zero,360(sp)
 588:	16012623          	sw	zero,364(sp)
 58c:	16012823          	sw	zero,368(sp)
 590:	16012a23          	sw	zero,372(sp)
 594:	16012c23          	sw	zero,376(sp)
 598:	16012e23          	sw	zero,380(sp)
 59c:	18012023          	sw	zero,384(sp)
 5a0:	18012223          	sw	zero,388(sp)
 5a4:	18012423          	sw	zero,392(sp)
 5a8:	02012a23          	sw	zero,52(sp)
 5ac:	06012823          	sw	zero,112(sp)
 5b0:	18012623          	sw	zero,396(sp)
 5b4:	18012823          	sw	zero,400(sp)
 5b8:	18012a23          	sw	zero,404(sp)
 5bc:	18012c23          	sw	zero,408(sp)
 5c0:	1a012023          	sw	zero,416(sp)
 5c4:	1a012223          	sw	zero,420(sp)
 5c8:	1a012423          	sw	zero,424(sp)
 5cc:	1a012623          	sw	zero,428(sp)
 5d0:	1a012823          	sw	zero,432(sp)
 5d4:	1a012a23          	sw	zero,436(sp)
 5d8:	1a012c23          	sw	zero,440(sp)
 5dc:	1a012e23          	sw	zero,444(sp)
 5e0:	1c012023          	sw	zero,448(sp)
 5e4:	1c012223          	sw	zero,452(sp)
 5e8:	02012c23          	sw	zero,56(sp)
 5ec:	06012a23          	sw	zero,116(sp)
 5f0:	1c012423          	sw	zero,456(sp)
 5f4:	1c012623          	sw	zero,460(sp)
 5f8:	1c012823          	sw	zero,464(sp)
 5fc:	1c012a23          	sw	zero,468(sp)
 600:	1c012c23          	sw	zero,472(sp)
 604:	1e012023          	sw	zero,480(sp)
 608:	1e012223          	sw	zero,484(sp)
 60c:	1e012423          	sw	zero,488(sp)
 610:	1e012623          	sw	zero,492(sp)
 614:	1e012823          	sw	zero,496(sp)
 618:	1e012a23          	sw	zero,500(sp)
 61c:	1e012c23          	sw	zero,504(sp)
 620:	1e012e23          	sw	zero,508(sp)
 624:	20012023          	sw	zero,512(sp)
 628:	02012e23          	sw	zero,60(sp)
 62c:	06012c23          	sw	zero,120(sp)
 630:	20012223          	sw	zero,516(sp)
 634:	20012423          	sw	zero,520(sp)
 638:	20012623          	sw	zero,524(sp)
 63c:	20012823          	sw	zero,528(sp)
 640:	20012a23          	sw	zero,532(sp)
 644:	20012c23          	sw	zero,536(sp)
 648:	22012023          	sw	zero,544(sp)
 64c:	22012223          	sw	zero,548(sp)
 650:	22012423          	sw	zero,552(sp)
 654:	22012623          	sw	zero,556(sp)
 658:	22012823          	sw	zero,560(sp)
 65c:	22012a23          	sw	zero,564(sp)
 660:	22012c23          	sw	zero,568(sp)
 664:	22012e23          	sw	zero,572(sp)
 668:	04012023          	sw	zero,64(sp)
 66c:	06012e23          	sw	zero,124(sp)
 670:	24012023          	sw	zero,576(sp)
 674:	24012223          	sw	zero,580(sp)
 678:	24012423          	sw	zero,584(sp)
 67c:	24012623          	sw	zero,588(sp)
 680:	24012823          	sw	zero,592(sp)
 684:	24012a23          	sw	zero,596(sp)
 688:	24012c23          	sw	zero,600(sp)
 68c:	26012023          	sw	zero,608(sp)
 690:	26012223          	sw	zero,612(sp)
 694:	26012423          	sw	zero,616(sp)
 698:	26012623          	sw	zero,620(sp)
 69c:	26012823          	sw	zero,624(sp)
 6a0:	26012a23          	sw	zero,628(sp)
 6a4:	26012c23          	sw	zero,632(sp)
 6a8:	04012223          	sw	zero,68(sp)
 6ac:	08012023          	sw	zero,128(sp)
 6b0:	26012e23          	sw	zero,636(sp)
 6b4:	28012023          	sw	zero,640(sp)
 6b8:	28012223          	sw	zero,644(sp)
 6bc:	28012423          	sw	zero,648(sp)
 6c0:	28012623          	sw	zero,652(sp)
 6c4:	28012823          	sw	zero,656(sp)
 6c8:	28012a23          	sw	zero,660(sp)
 6cc:	28012c23          	sw	zero,664(sp)
 6d0:	2a012023          	sw	zero,672(sp)
 6d4:	2a012223          	sw	zero,676(sp)
 6d8:	2a012423          	sw	zero,680(sp)
 6dc:	2a012623          	sw	zero,684(sp)
 6e0:	2a012823          	sw	zero,688(sp)
 6e4:	2a012a23          	sw	zero,692(sp)
 6e8:	04012423          	sw	zero,72(sp)
 6ec:	08012223          	sw	zero,132(sp)
 6f0:	2a012c23          	sw	zero,696(sp)
 6f4:	2a012e23          	sw	zero,700(sp)
 6f8:	2c012023          	sw	zero,704(sp)
 6fc:	2c012223          	sw	zero,708(sp)
 700:	2c012423          	sw	zero,712(sp)
 704:	2c012623          	sw	zero,716(sp)
 708:	2c012823          	sw	zero,720(sp)
 70c:	2c012a23          	sw	zero,724(sp)
 710:	2c012c23          	sw	zero,728(sp)
 714:	2e012023          	sw	zero,736(sp)
 718:	2e012223          	sw	zero,740(sp)
 71c:	2e012423          	sw	zero,744(sp)
 720:	2e012623          	sw	zero,748(sp)
 724:	2e012823          	sw	zero,752(sp)
 728:	04012623          	sw	zero,76(sp)
 72c:	08012423          	sw	zero,136(sp)
 730:	2e012a23          	sw	zero,756(sp)
 734:	2e012c23          	sw	zero,760(sp)
 738:	2ed12e27          	fsw	fa3,764(sp)
 73c:	30d12027          	fsw	fa3,768(sp)
 740:	30d12227          	fsw	fa3,772(sp)
 744:	30d12427          	fsw	fa3,776(sp)
 748:	30d12627          	fsw	fa3,780(sp)
 74c:	30d12827          	fsw	fa3,784(sp)
 750:	30d12a27          	fsw	fa3,788(sp)
 754:	30d12c27          	fsw	fa3,792(sp)
 758:	32d12027          	fsw	fa3,800(sp)
 75c:	32d12227          	fsw	fa3,804(sp)
 760:	32d12427          	fsw	fa3,808(sp)
 764:	32d12627          	fsw	fa3,812(sp)
 768:	04d12827          	fsw	fa3,80(sp)
 76c:	08d12627          	fsw	fa3,140(sp)
 770:	00d12427          	fsw	fa3,8(sp)
 774:	32d12827          	fsw	fa3,816(sp)
 778:	00d12227          	fsw	fa3,4(sp)
 77c:	32d12a27          	fsw	fa3,820(sp)
 780:	32d12c27          	fsw	fa3,824(sp)
 784:	32d12e27          	fsw	fa3,828(sp)
 788:	34d12027          	fsw	fa3,832(sp)
 78c:	34d12227          	fsw	fa3,836(sp)
 790:	34d12427          	fsw	fa3,840(sp)
 794:	34d12627          	fsw	fa3,844(sp)
 798:	34d12827          	fsw	fa3,848(sp)
 79c:	34d12a27          	fsw	fa3,852(sp)
 7a0:	34d12c27          	fsw	fa3,856(sp)
 7a4:	36d12027          	fsw	fa3,864(sp)
 7a8:	36d12227          	fsw	fa3,868(sp)
 7ac:	36d12427          	fsw	fa3,872(sp)
 7b0:	04d12a27          	fsw	fa3,84(sp)
 7b4:	08d12827          	fsw	fa3,144(sp)
 7b8:	36d12627          	fsw	fa3,876(sp)
 7bc:	36d12827          	fsw	fa3,880(sp)
 7c0:	36d12a27          	fsw	fa3,884(sp)
 7c4:	36d12c27          	fsw	fa3,888(sp)
 7c8:	36d12e27          	fsw	fa3,892(sp)
 7cc:	38d12027          	fsw	fa3,896(sp)
 7d0:	38d12227          	fsw	fa3,900(sp)
 7d4:	38d12427          	fsw	fa3,904(sp)
 7d8:	38d12627          	fsw	fa3,908(sp)
 7dc:	38d12827          	fsw	fa3,912(sp)
 7e0:	38d12a27          	fsw	fa3,916(sp)
 7e4:	38d12c27          	fsw	fa3,920(sp)
 7e8:	3ad12027          	fsw	fa3,928(sp)
 7ec:	3ad12227          	fsw	fa3,932(sp)
 7f0:	04d12c27          	fsw	fa3,88(sp)
 7f4:	00000797          	auipc	a5,0x0
 7f8:	32c7a607          	flw	fa2,812(a5) # b20 <__rodata_start>
 7fc:	08d12a27          	fsw	fa3,148(sp)
 800:	3ad12427          	fsw	fa3,936(sp)
 804:	3ad12627          	fsw	fa3,940(sp)
 808:	3ad12827          	fsw	fa3,944(sp)
 80c:	3ad12a27          	fsw	fa3,948(sp)
 810:	3ad12c27          	fsw	fa3,952(sp)
 814:	3ad12e27          	fsw	fa3,956(sp)
 818:	3cd12027          	fsw	fa3,960(sp)
 81c:	3cd12227          	fsw	fa3,964(sp)
 820:	3cd12427          	fsw	fa3,968(sp)
 824:	3cd12627          	fsw	fa3,972(sp)
 828:	3cd12827          	fsw	fa3,976(sp)
 82c:	3cd12a27          	fsw	fa3,980(sp)
 830:	3cd12c27          	fsw	fa3,984(sp)
 834:	3ed12027          	fsw	fa3,992(sp)
 838:	04d12e27          	fsw	fa3,92(sp)
 83c:	08d12c27          	fsw	fa3,152(sp)
 840:	3ed12227          	fsw	fa3,996(sp)
 844:	3ed12427          	fsw	fa3,1000(sp)
 848:	3ed12627          	fsw	fa3,1004(sp)
 84c:	3ed12827          	fsw	fa3,1008(sp)
 850:	3ed12a27          	fsw	fa3,1012(sp)
 854:	3ed12c27          	fsw	fa3,1016(sp)
 858:	3ed12e27          	fsw	fa3,1020(sp)
 85c:	40d12027          	fsw	fa3,1024(sp)
 860:	40d12227          	fsw	fa3,1028(sp)
 864:	40d12427          	fsw	fa3,1032(sp)
 868:	40d12627          	fsw	fa3,1036(sp)
 86c:	40d12827          	fsw	fa3,1040(sp)
 870:	40d12a27          	fsw	fa3,1044(sp)
 874:	40d12c27          	fsw	fa3,1048(sp)
 878:	08c12e27          	fsw	fa2,156(sp)
 87c:	0cc12e27          	fsw	fa2,220(sp)
 880:	10c12e27          	fsw	fa2,284(sp)
 884:	14c12e27          	fsw	fa2,348(sp)
 888:	18c12e27          	fsw	fa2,412(sp)
 88c:	1cc12e27          	fsw	fa2,476(sp)
 890:	20c12e27          	fsw	fa2,540(sp)
 894:	24c12e27          	fsw	fa2,604(sp)
 898:	28c12e27          	fsw	fa2,668(sp)
 89c:	2cc12e27          	fsw	fa2,732(sp)
 8a0:	30c12e27          	fsw	fa2,796(sp)
 8a4:	34c12e27          	fsw	fa2,860(sp)
 8a8:	38c12e27          	fsw	fa2,924(sp)
 8ac:	3cc12e27          	fsw	fa2,988(sp)
 8b0:	40c12e27          	fsw	fa2,1052(sp)
 8b4:	00f00713          	li	a4,15
 8b8:	00040693          	mv	a3,s0
 8bc:	02010613          	addi	a2,sp,32
 8c0:	09c10593          	addi	a1,sp,156
 8c4:	00048513          	mv	a0,s1
 8c8:	00000b17          	auipc	s6,0x0
 8cc:	268b0b13          	addi	s6,s6,616 # b30 <__rodata_start+0x10>
 8d0:	00d12627          	fsw	fa3,12(sp)
 8d4:	00000a97          	auipc	s5,0x0
 8d8:	260a8a93          	addi	s5,s5,608 # b34 <__rodata_start+0x14>
 8dc:	02012023          	sw	zero,32(sp)
 8e0:	9a5ff0ef          	jal	284 <rosenbrock_dv>
 8e4:	000b2707          	flw	fa4,0(s6)
 8e8:	00040513          	mv	a0,s0
 8ec:	00412787          	flw	fa5,4(sp)
 8f0:	10e47453          	fmul.s	fs0,fs0,fa4
 8f4:	06012207          	flw	ft4,96(sp)
 8f8:	10e7f1d3          	fmul.s	ft3,fa5,fa4
 8fc:	00812787          	flw	fa5,8(sp)
 900:	10e4f4d3          	fmul.s	fs1,fs1,fa4
 904:	06412107          	flw	ft2,100(sp)
 908:	10e7f0d3          	fmul.s	ft1,fa5,fa4
 90c:	06812007          	flw	ft0,104(sp)
 910:	10e97953          	fmul.s	fs2,fs2,fa4
 914:	000aa787          	flw	fa5,0(s5)
 918:	06c12507          	flw	fa0,108(sp)
 91c:	10ec7c53          	fmul.s	fs8,fs8,fa4
 920:	07012587          	flw	fa1,112(sp)
 924:	18f276c3          	fmadd.s	fa3,ft4,fa5,ft3
 928:	40f07443          	fmadd.s	fs0,ft0,fa5,fs0
 92c:	08812887          	flw	fa7,136(sp)
 930:	08f17ec3          	fmadd.s	ft9,ft2,fa5,ft1
 934:	02412187          	flw	ft3,36(sp)
 938:	48f574c3          	fmadd.s	fs1,fa0,fa5,fs1
 93c:	02812087          	flw	ft1,40(sp)
 940:	90f5f943          	fmadd.s	fs2,fa1,fa5,fs2
 944:	02c12007          	flw	ft0,44(sp)
 948:	10ebfbd3          	fmul.s	fs7,fs7,fa4
 94c:	03012507          	flw	fa0,48(sp)
 950:	10e9f9d3          	fmul.s	fs3,fs3,fa4
 954:	08412807          	flw	fa6,132(sp)
 958:	c0f8fc43          	fmadd.s	fs8,fa7,fa5,fs8
 95c:	03412587          	flw	fa1,52(sp)
 960:	08d1f1d3          	fsub.s	ft3,ft3,fa3
 964:	07412607          	flw	fa2,116(sp)
 968:	09d0f0d3          	fsub.s	ft1,ft1,ft9
 96c:	07812287          	flw	ft5,120(sp)
 970:	08807053          	fsub.s	ft0,ft0,fs0
 974:	07c12307          	flw	ft6,124(sp)
 978:	08957553          	fsub.s	fa0,fa0,fs1
 97c:	08012387          	flw	ft7,128(sp)
 980:	10ea7a53          	fmul.s	fs4,fs4,fa4
 984:	04812207          	flw	ft4,72(sp)
 988:	10eafad3          	fmul.s	fs5,fs5,fa4
 98c:	00d12227          	fsw	fa3,4(sp)
 990:	10eb7b53          	fmul.s	fs6,fs6,fa4
 994:	01d12427          	fsw	ft9,8(sp)
 998:	b8f87bc3          	fmadd.s	fs7,fa6,fa5,fs7
 99c:	02312227          	fsw	ft3,36(sp)
 9a0:	0925f5d3          	fsub.s	fa1,fa1,fs2
 9a4:	02112427          	fsw	ft1,40(sp)
 9a8:	98f679c3          	fmadd.s	fs3,fa2,fa5,fs3
 9ac:	04c12607          	flw	fa2,76(sp)
 9b0:	02012627          	fsw	ft0,44(sp)
 9b4:	a0f2fa43          	fmadd.s	fs4,ft5,fa5,fs4
 9b8:	09867653          	fsub.s	fa2,fa2,fs8
 9bc:	02a12827          	fsw	fa0,48(sp)
 9c0:	a8f37ac3          	fmadd.s	fs5,ft6,fa5,fs5
 9c4:	04012e07          	flw	ft8,64(sp)
 9c8:	09727553          	fsub.s	fa0,ft4,fs7
 9cc:	04412307          	flw	ft6,68(sp)
 9d0:	b0f3fb43          	fmadd.s	fs6,ft7,fa5,fs6
 9d4:	03812107          	flw	ft2,56(sp)
 9d8:	10ecfcd3          	fmul.s	fs9,fs9,fa4
 9dc:	03c12287          	flw	ft5,60(sp)
 9e0:	02b12a27          	fsw	fa1,52(sp)
 9e4:	10ed7d53          	fmul.s	fs10,fs10,fa4
 9e8:	00c12687          	flw	fa3,12(sp)
 9ec:	10edfdd3          	fmul.s	fs11,fs11,fa4
 9f0:	04c12627          	fsw	fa2,76(sp)
 9f4:	09317153          	fsub.s	ft2,ft2,fs3
 9f8:	10e6f6d3          	fmul.s	fa3,fa3,fa4
 9fc:	08c12607          	flw	fa2,140(sp)
 a00:	09637053          	fsub.s	ft0,ft6,fs6
 a04:	09412587          	flw	fa1,148(sp)
 a08:	c8f67cc3          	fmadd.s	fs9,fa2,fa5,fs9
 a0c:	04a12427          	fsw	fa0,72(sp)
 a10:	09812607          	flw	fa2,152(sp)
 a14:	d8f5fdc3          	fmadd.s	fs11,fa1,fa5,fs11
 a18:	09012507          	flw	fa0,144(sp)
 a1c:	0942f2d3          	fsub.s	ft5,ft5,fs4
 a20:	68f676c3          	fmadd.s	fa3,fa2,fa5,fa3
 a24:	05812587          	flw	fa1,88(sp)
 a28:	d0f57d43          	fmadd.s	fs10,fa0,fa5,fs10
 a2c:	05c12607          	flw	fa2,92(sp)
 a30:	05412507          	flw	fa0,84(sp)
 a34:	095e70d3          	fsub.s	ft1,ft8,fs5
 a38:	04012227          	fsw	ft0,68(sp)
 a3c:	09b5f5d3          	fsub.s	fa1,fa1,fs11
 a40:	05012007          	flw	ft0,80(sp)
 a44:	08d67653          	fsub.s	fa2,fa2,fa3
 a48:	00d12627          	fsw	fa3,12(sp)
 a4c:	09907053          	fsub.s	ft0,ft0,fs9
 a50:	02212c27          	fsw	ft2,56(sp)
 a54:	09a57553          	fsub.s	fa0,fa0,fs10
 a58:	02512e27          	fsw	ft5,60(sp)
 a5c:	04112027          	fsw	ft1,64(sp)
 a60:	04b12c27          	fsw	fa1,88(sp)
 a64:	04c12e27          	fsw	fa2,92(sp)
 a68:	04012827          	fsw	ft0,80(sp)
 a6c:	04a12a27          	fsw	fa0,84(sp)
 a70:	8fdff0ef          	jal	36c <check_abort>
 a74:	01c12783          	lw	a5,28(sp)
 a78:	00154513          	xori	a0,a0,1
 a7c:	00178793          	addi	a5,a5,1
 a80:	0127a733          	slt	a4,a5,s2
 a84:	00f12e23          	sw	a5,28(sp)
 a88:	00a777b3          	and	a5,a4,a0
 a8c:	00c12687          	flw	fa3,12(sp)
 a90:	e20792e3          	bnez	a5,8b4 <optimize+0x4a0>
 a94:	00000413          	li	s0,0
 a98:	00f00913          	li	s2,15
 a9c:	00140413          	addi	s0,s0,1
 aa0:	00048513          	mv	a0,s1
 aa4:	00040593          	mv	a1,s0
 aa8:	00448493          	addi	s1,s1,4
 aac:	db8ff0ef          	jal	64 <store_in_fpos>
 ab0:	ff2416e3          	bne	s0,s2,a9c <optimize+0x688>
 ab4:	01c10513          	addi	a0,sp,28
 ab8:	01000593          	li	a1,16
 abc:	d98ff0ef          	jal	54 <store_in_pos>
 ac0:	46812403          	lw	s0,1128(sp)
 ac4:	46c12083          	lw	ra,1132(sp)
 ac8:	02012507          	flw	fa0,32(sp)
 acc:	46412483          	lw	s1,1124(sp)
 ad0:	46012903          	lw	s2,1120(sp)
 ad4:	45412a83          	lw	s5,1108(sp)
 ad8:	45012b03          	lw	s6,1104(sp)
 adc:	44c12407          	flw	fs0,1100(sp)
 ae0:	44812487          	flw	fs1,1096(sp)
 ae4:	44412907          	flw	fs2,1092(sp)
 ae8:	44012987          	flw	fs3,1088(sp)
 aec:	43c12a07          	flw	fs4,1084(sp)
 af0:	43812a87          	flw	fs5,1080(sp)
 af4:	43412b07          	flw	fs6,1076(sp)
 af8:	43012b87          	flw	fs7,1072(sp)
 afc:	42c12c07          	flw	fs8,1068(sp)
 b00:	42812c87          	flw	fs9,1064(sp)
 b04:	42412d07          	flw	fs10,1060(sp)
 b08:	42012d87          	flw	fs11,1056(sp)
 b0c:	47010113          	addi	sp,sp,1136
 b10:	00008067          	ret

00000b14 <CALL_MAIN_FIRST>:
 b14:	cecff06f          	j	0 <main>
